; Function Attrs: mustprogress uwtable
define dso_local void @_ZN4Luau6detail6mkNameERKNS_12AstStatLocalE(ptr dead_on_unwind noalias writable sret(%"class.std::optional") align 8 %0, ptr nocapture noundef nonnull readonly align 8 dereferenceable(84) %1) local_unnamed_addr #2 personality ptr @__gxx_personality_v0 {
  %3 = alloca %"struct.Luau::detail::Identifier", align 8
  %4 = getelementptr inbounds i8, ptr %1, i64 40
  %5 = load i64, ptr %4, align 8
  %.not = icmp eq i64 %5, 1
  br i1 %.not, label %8, label %6

6:                                                ; preds = %2
  %7 = getelementptr inbounds i8, ptr %0, i64 40
  store i8 0, ptr %7, align 8
  br label %16

8:                                                ; preds = %2
  %9 = getelementptr inbounds i8, ptr %1, i64 32
  %10 = load ptr, ptr %9, align 8
  %11 = load ptr, ptr %10, align 8
  call void @_ZN4Luau6detail6mkNameERKNS_8AstLocalE(ptr dead_on_unwind nonnull writable sret(%"struct.Luau::detail::Identifier") align 8 %3, ptr noundef nonnull align 8 dereferenceable(56) %11)
  call void @_ZNSt7__cxx1112basic_stringIcSt11char_traitsIcESaIcEEC1EOS4_(ptr noundef nonnull align 8 dereferenceable(32) %0, ptr noundef nonnull align 8 dereferenceable(32) %3) #19
  %12 = getelementptr inbounds i8, ptr %0, i64 32
  %13 = getelementptr inbounds i8, ptr %3, i64 32
  %14 = load ptr, ptr %13, align 8
  store ptr %14, ptr %12, align 8
  %15 = getelementptr inbounds i8, ptr %0, i64 40
  store i8 1, ptr %15, align 8
  call void @_ZNSt7__cxx1112basic_stringIcSt11char_traitsIcESaIcEED1Ev(ptr noundef nonnull align 8 dereferenceable(32) %3) #19
  br label %16

16:                                               ; preds = %8, %6
  ret void
}